target datalayout = "e-m:e-p270:32:32-p271:32:32-p272:64:64-i64:64-i128:128-f80:128-n8:16:32:64-S128"
target triple = "x86_64-pc-linux-gnu"

%struct.lex_context = type { i16, [2 x i8] }
%struct.parser_params = type { ptr, ptr, %struct.anon.12, i64, i64, i32, i32, i32, i32, i32, ptr, ptr, ptr, ptr, i32, i32, ptr, i64, ptr, ptr, ptr, ptr, i64, i64, %struct.anon.13, ptr, i32, ptr, i32, i64, %struct.lex_context, ptr, ptr, ptr, i32, i64, ptr, ptr, i32, ptr }
%struct.anon.12 = type { ptr, ptr, ptr, %struct.parser_string_buffer, ptr, ptr, ptr, ptr, ptr, ptr, i32, i32, i32, i32 }
%struct.parser_string_buffer = type { ptr, ptr }
%struct.anon.13 = type { ptr, i32, i32, i32, i32 }
%struct.OnigEncodingTypeST = type { ptr, ptr, i32, i32, ptr, ptr, ptr, ptr, ptr, ptr, ptr, ptr, ptr, ptr, ptr, ptr, ptr, i32, i32 }

; Function Attrs: inlinehint nounwind sspstrong uwtable
define internal i32 @parse_isascii(i32 noundef %0) #2 {
  %2 = alloca i32, align 4
  store i32 %0, ptr %2, align 4, !tbaa !34
  %3 = load i32, ptr %2, align 4, !tbaa !34
  %4 = icmp sle i32 0, %3
  br i1 %4, label %5, label %8

5:                                                ; preds = %1
  %6 = load i32, ptr %2, align 4, !tbaa !34
  %7 = icmp sle i32 %6, 127
  br label %8

8:                                                ; preds = %5, %1
  %9 = phi i1 [ false, %1 ], [ %7, %5 ]
  %10 = zext i1 %9 to i32
  ret i32 %10
}

; Function Attrs: inlinehint nounwind sspstrong uwtable
define internal zeroext i1 @rb_enc_isalnum(i32 noundef %0, ptr noundef %1) #2 {
  %3 = alloca i32, align 4
  %4 = alloca ptr, align 8
  store i32 %0, ptr %3, align 4, !tbaa !34
  store ptr %1, ptr %4, align 8, !tbaa !21
  %5 = load ptr, ptr %4, align 8, !tbaa !21
  %6 = getelementptr inbounds nuw %struct.OnigEncodingTypeST, ptr %5, i32 0, i32 12
  %7 = load ptr, ptr %6, align 8, !tbaa !707
  %8 = load i32, ptr %3, align 4, !tbaa !34
  %9 = load ptr, ptr %4, align 8, !tbaa !21
  %10 = call i32 %7(i32 noundef %8, i32 noundef 13, ptr noundef %9)
  %11 = icmp ne i32 %10, 0
  ret i1 %11
}

; Function Attrs: inlinehint nounwind sspstrong uwtable
define internal i32 @is_identchar(ptr noundef %0, ptr noundef %1, ptr noundef %2, ptr noundef %3) #2 {
  %5 = alloca ptr, align 8
  %6 = alloca ptr, align 8
  %7 = alloca ptr, align 8
  %8 = alloca ptr, align 8
  store ptr %0, ptr %5, align 8, !tbaa !7
  store ptr %1, ptr %6, align 8, !tbaa !19
  store ptr %2, ptr %7, align 8, !tbaa !19
  store ptr %3, ptr %8, align 8, !tbaa !21
  %9 = load ptr, ptr %6, align 8, !tbaa !19
  %10 = load i8, ptr %9, align 1, !tbaa !27
  %11 = zext i8 %10 to i32
  %12 = load ptr, ptr %8, align 8, !tbaa !21
  %13 = call zeroext i1 @rb_enc_isalnum(i32 noundef %11, ptr noundef %12)
  br i1 %13, label %26, label %14

14:                                               ; preds = %4
  %15 = load ptr, ptr %6, align 8, !tbaa !19
  %16 = load i8, ptr %15, align 1, !tbaa !27
  %17 = sext i8 %16 to i32
  %18 = icmp eq i32 %17, 95
  br i1 %18, label %26, label %19

19:                                               ; preds = %14
  %20 = load ptr, ptr %6, align 8, !tbaa !19
  %21 = load i8, ptr %20, align 1, !tbaa !27
  %22 = sext i8 %21 to i32
  %23 = call i32 @parse_isascii(i32 noundef %22)
  %24 = icmp ne i32 %23, 0
  %25 = xor i1 %24, true
  br label %26

26:                                               ; preds = %19, %14, %4
  %27 = phi i1 [ true, %14 ], [ true, %4 ], [ %25, %19 ]
  %28 = zext i1 %27 to i32
  ret i32 %28
}

; Function Attrs: nounwind sspstrong uwtable
define internal i32 @parser_cr(ptr noundef %0, i32 noundef %1) #0 {
  %3 = alloca ptr, align 8
  %4 = alloca i32, align 4
  store ptr %0, ptr %3, align 8, !tbaa !7
  store i32 %1, ptr %4, align 4, !tbaa !34
  %5 = load ptr, ptr %3, align 8, !tbaa !7
  %6 = getelementptr inbounds nuw %struct.parser_params, ptr %5, i32 0, i32 2
  %7 = getelementptr inbounds nuw %struct.anon.12, ptr %6, i32 0, i32 7
  %8 = load ptr, ptr %7, align 8, !tbaa !161
  %9 = getelementptr i8, ptr %8, i64 0
  %10 = load ptr, ptr %3, align 8, !tbaa !7
  %11 = getelementptr inbounds nuw %struct.parser_params, ptr %10, i32 0, i32 2
  %12 = getelementptr inbounds nuw %struct.anon.12, ptr %11, i32 0, i32 8
  %13 = load ptr, ptr %12, align 8, !tbaa !448
  %14 = icmp uge ptr %9, %13
  br i1 %14, label %30, label %15

15:                                               ; preds = %2
  %16 = load ptr, ptr %3, align 8, !tbaa !7
  %17 = getelementptr inbounds nuw %struct.parser_params, ptr %16, i32 0, i32 2
  %18 = getelementptr inbounds nuw %struct.anon.12, ptr %17, i32 0, i32 7
  %19 = load ptr, ptr %18, align 8, !tbaa !161
  %20 = getelementptr i8, ptr %19, i64 0
  %21 = load i8, ptr %20, align 1, !tbaa !27
  %22 = zext i8 %21 to i32
  %23 = icmp eq i32 10, %22
  br i1 %23, label %24, label %30

24:                                               ; preds = %15
  %25 = load ptr, ptr %3, align 8, !tbaa !7
  %26 = getelementptr inbounds nuw %struct.parser_params, ptr %25, i32 0, i32 2
  %27 = getelementptr inbounds nuw %struct.anon.12, ptr %26, i32 0, i32 7
  %28 = load ptr, ptr %27, align 8, !tbaa !161
  %29 = getelementptr i8, ptr %28, i32 1
  store ptr %29, ptr %27, align 8, !tbaa !161
  store i32 10, ptr %4, align 4, !tbaa !34
  br label %30

30:                                               ; preds = %24, %15, %2
  %31 = load i32, ptr %4, align 4, !tbaa !34
  ret i32 %31
}

; Function Attrs: nounwind sspstrong uwtable
define internal void @pushback(ptr noundef %0, i32 noundef %1) #0 {
  %3 = alloca ptr, align 8
  %4 = alloca i32, align 4
  store ptr %0, ptr %3, align 8, !tbaa !7
  store i32 %1, ptr %4, align 4, !tbaa !34
  %5 = load i32, ptr %4, align 4, !tbaa !34
  %6 = icmp eq i32 %5, -1
  br i1 %6, label %7, label %8

7:                                                ; preds = %2
  br label %52

8:                                                ; preds = %2
  %9 = load ptr, ptr %3, align 8, !tbaa !7
  %10 = getelementptr inbounds nuw %struct.parser_params, ptr %9, i32 0, i32 34
  %11 = load i32, ptr %10, align 8
  %12 = and i32 %11, -9
  %13 = or i32 %12, 0
  store i32 %13, ptr %10, align 8
  %14 = load ptr, ptr %3, align 8, !tbaa !7
  %15 = getelementptr inbounds nuw %struct.parser_params, ptr %14, i32 0, i32 2
  %16 = getelementptr inbounds nuw %struct.anon.12, ptr %15, i32 0, i32 7
  %17 = load ptr, ptr %16, align 8, !tbaa !161
  %18 = getelementptr i8, ptr %17, i32 -1
  store ptr %18, ptr %16, align 8, !tbaa !161
  %19 = load ptr, ptr %3, align 8, !tbaa !7
  %20 = getelementptr inbounds nuw %struct.parser_params, ptr %19, i32 0, i32 2
  %21 = getelementptr inbounds nuw %struct.anon.12, ptr %20, i32 0, i32 7
  %22 = load ptr, ptr %21, align 8, !tbaa !161
  %23 = load ptr, ptr %3, align 8, !tbaa !7
  %24 = getelementptr inbounds nuw %struct.parser_params, ptr %23, i32 0, i32 2
  %25 = getelementptr inbounds nuw %struct.anon.12, ptr %24, i32 0, i32 6
  %26 = load ptr, ptr %25, align 8, !tbaa !128
  %27 = icmp ugt ptr %22, %26
  br i1 %27, label %28, label %52

28:                                               ; preds = %8
  %29 = load ptr, ptr %3, align 8, !tbaa !7
  %30 = getelementptr inbounds nuw %struct.parser_params, ptr %29, i32 0, i32 2
  %31 = getelementptr inbounds nuw %struct.anon.12, ptr %30, i32 0, i32 7
  %32 = load ptr, ptr %31, align 8, !tbaa !161
  %33 = getelementptr i8, ptr %32, i64 0
  %34 = load i8, ptr %33, align 1, !tbaa !27
  %35 = sext i8 %34 to i32
  %36 = icmp eq i32 %35, 10
  br i1 %36, label %37, label %52

37:                                               ; preds = %28
  %38 = load ptr, ptr %3, align 8, !tbaa !7
  %39 = getelementptr inbounds nuw %struct.parser_params, ptr %38, i32 0, i32 2
  %40 = getelementptr inbounds nuw %struct.anon.12, ptr %39, i32 0, i32 7
  %41 = load ptr, ptr %40, align 8, !tbaa !161
  %42 = getelementptr i8, ptr %41, i64 -1
  %43 = load i8, ptr %42, align 1, !tbaa !27
  %44 = sext i8 %43 to i32
  %45 = icmp eq i32 %44, 13
  br i1 %45, label %46, label %52

46:                                               ; preds = %37
  %47 = load ptr, ptr %3, align 8, !tbaa !7
  %48 = getelementptr inbounds nuw %struct.parser_params, ptr %47, i32 0, i32 2
  %49 = getelementptr inbounds nuw %struct.anon.12, ptr %48, i32 0, i32 7
  %50 = load ptr, ptr %49, align 8, !tbaa !161
  %51 = getelementptr i8, ptr %50, i32 -1
  store ptr %51, ptr %49, align 8, !tbaa !161
  br label %52

52:                                               ; preds = %7, %46, %37, %28, %8
  ret void
}

; Function Attrs: inlinehint nounwind sspstrong uwtable
define internal i32 @parser_is_identchar(ptr noundef %0) #2 {
  %2 = alloca ptr, align 8
  store ptr %0, ptr %2, align 8, !tbaa !7
  %3 = load ptr, ptr %2, align 8, !tbaa !7
  %4 = getelementptr inbounds nuw %struct.parser_params, ptr %3, i32 0, i32 34
  %5 = load i32, ptr %4, align 8
  %6 = lshr i32 %5, 3
  %7 = and i32 %6, 1
  %8 = icmp ne i32 %7, 0
  br i1 %8, label %25, label %9

9:                                                ; preds = %1
  %10 = load ptr, ptr %2, align 8, !tbaa !7
  %11 = load ptr, ptr %2, align 8, !tbaa !7
  %12 = getelementptr inbounds nuw %struct.parser_params, ptr %11, i32 0, i32 2
  %13 = getelementptr inbounds nuw %struct.anon.12, ptr %12, i32 0, i32 7
  %14 = load ptr, ptr %13, align 8, !tbaa !161
  %15 = getelementptr i8, ptr %14, i64 -1
  %16 = load ptr, ptr %2, align 8, !tbaa !7
  %17 = getelementptr inbounds nuw %struct.parser_params, ptr %16, i32 0, i32 2
  %18 = getelementptr inbounds nuw %struct.anon.12, ptr %17, i32 0, i32 8
  %19 = load ptr, ptr %18, align 8, !tbaa !448
  %20 = load ptr, ptr %2, align 8, !tbaa !7
  %21 = getelementptr inbounds nuw %struct.parser_params, ptr %20, i32 0, i32 18
  %22 = load ptr, ptr %21, align 8, !tbaa !148
  %23 = call i32 @is_identchar(ptr noundef %10, ptr noundef %15, ptr noundef %19, ptr noundef %22)
  %24 = icmp ne i32 %23, 0
  br label %25

25:                                               ; preds = %9, %1
  %26 = phi i1 [ false, %1 ], [ %24, %9 ]
  %27 = zext i1 %26 to i32
  ret i32 %27
}

; Function Attrs: inlinehint nounwind sspstrong uwtable
define internal i32 @nextc0(ptr noundef %0, i32 noundef %1) #2 {
  %3 = alloca i32, align 4
  %4 = alloca ptr, align 8
  %5 = alloca i32, align 4
  %6 = alloca i32, align 4
  %7 = alloca i32, align 4
  store ptr %0, ptr %4, align 8, !tbaa !7
  store i32 %1, ptr %5, align 4, !tbaa !34
  call void @llvm.lifetime.start.p0(i64 4, ptr %6) #26
  %8 = load ptr, ptr %4, align 8, !tbaa !7
  %9 = getelementptr inbounds nuw %struct.parser_params, ptr %8, i32 0, i32 2
  %10 = getelementptr inbounds nuw %struct.anon.12, ptr %9, i32 0, i32 7
  %11 = load ptr, ptr %10, align 8, !tbaa !161
  %12 = getelementptr i8, ptr %11, i64 0
  %13 = load ptr, ptr %4, align 8, !tbaa !7
  %14 = getelementptr inbounds nuw %struct.parser_params, ptr %13, i32 0, i32 2
  %15 = getelementptr inbounds nuw %struct.anon.12, ptr %14, i32 0, i32 8
  %16 = load ptr, ptr %15, align 8, !tbaa !448
  %17 = icmp uge ptr %12, %16
  br i1 %17, label %31, label %18

18:                                               ; preds = %2
  %19 = load ptr, ptr %4, align 8, !tbaa !7
  %20 = getelementptr inbounds nuw %struct.parser_params, ptr %19, i32 0, i32 34
  %21 = load i32, ptr %20, align 8
  %22 = lshr i32 %21, 3
  %23 = and i32 %22, 1
  %24 = icmp ne i32 %23, 0
  br i1 %24, label %31, label %25

25:                                               ; preds = %18
  %26 = load ptr, ptr %4, align 8, !tbaa !7
  %27 = getelementptr inbounds nuw %struct.parser_params, ptr %26, i32 0, i32 2
  %28 = getelementptr inbounds nuw %struct.anon.12, ptr %27, i32 0, i32 5
  %29 = load ptr, ptr %28, align 8, !tbaa !610
  %30 = icmp ugt ptr %29, inttoptr (i64 1 to ptr)
  br label %31

31:                                               ; preds = %25, %18, %2
  %32 = phi i1 [ true, %18 ], [ true, %2 ], [ %30, %25 ]
  %33 = xor i1 %32, true
  %34 = xor i1 %33, true
  %35 = zext i1 %34 to i32
  %36 = sext i32 %35 to i64
  %37 = call i64 @llvm.expect.i64(i64 %36, i64 0)
  %38 = icmp ne i64 %37, 0
  br i1 %38, label %39, label %46

39:                                               ; preds = %31
  %40 = load ptr, ptr %4, align 8, !tbaa !7
  %41 = load i32, ptr %5, align 4, !tbaa !34
  %42 = call i32 @nextline(ptr noundef %40, i32 noundef %41)
  %43 = icmp ne i32 %42, 0
  br i1 %43, label %44, label %45

44:                                               ; preds = %39
  store i32 -1, ptr %3, align 4
  store i32 1, ptr %7, align 4
  br label %68

45:                                               ; preds = %39
  br label %46

46:                                               ; preds = %45, %31
  %47 = load ptr, ptr %4, align 8, !tbaa !7
  %48 = getelementptr inbounds nuw %struct.parser_params, ptr %47, i32 0, i32 2
  %49 = getelementptr inbounds nuw %struct.anon.12, ptr %48, i32 0, i32 7
  %50 = load ptr, ptr %49, align 8, !tbaa !161
  %51 = getelementptr i8, ptr %50, i32 1
  store ptr %51, ptr %49, align 8, !tbaa !161
  %52 = load i8, ptr %50, align 1, !tbaa !27
  %53 = zext i8 %52 to i32
  store i32 %53, ptr %6, align 4, !tbaa !34
  %54 = load i32, ptr %6, align 4, !tbaa !34
  %55 = icmp eq i32 %54, 13
  %56 = xor i1 %55, true
  %57 = xor i1 %56, true
  %58 = zext i1 %57 to i32
  %59 = sext i32 %58 to i64
  %60 = call i64 @llvm.expect.i64(i64 %59, i64 0)
  %61 = icmp ne i64 %60, 0
  br i1 %61, label %62, label %66

62:                                               ; preds = %46
  %63 = load ptr, ptr %4, align 8, !tbaa !7
  %64 = load i32, ptr %6, align 4, !tbaa !34
  %65 = call i32 @parser_cr(ptr noundef %63, i32 noundef %64)
  store i32 %65, ptr %6, align 4, !tbaa !34
  br label %66

66:                                               ; preds = %62, %46
  %67 = load i32, ptr %6, align 4, !tbaa !34
  store i32 %67, ptr %3, align 4
  store i32 1, ptr %7, align 4
  br label %68

68:                                               ; preds = %66, %44
  call void @llvm.lifetime.end.p0(i64 4, ptr %6) #26
  %69 = load i32, ptr %3, align 4
  ret i32 %69
}

; Function Attrs: nounwind sspstrong uwtable
define internal i32 @tokadd_ident(ptr noundef %0, i32 noundef %1) #0 {
  %3 = alloca i32, align 4
  %4 = alloca ptr, align 8
  %5 = alloca i32, align 4
  store ptr %0, ptr %4, align 8, !tbaa !7
  store i32 %1, ptr %5, align 4, !tbaa !34
  br label %6

6:                                                ; preds = %15, %2
  %7 = load ptr, ptr %4, align 8, !tbaa !7
  %8 = load i32, ptr %5, align 4, !tbaa !34
  %9 = call i32 @tokadd_mbchar(ptr noundef %7, i32 noundef %8)
  %10 = icmp eq i32 %9, -1
  br i1 %10, label %11, label %12

11:                                               ; preds = %6
  store i32 -1, ptr %3, align 4
  br label %22

12:                                               ; preds = %6
  %13 = load ptr, ptr %4, align 8, !tbaa !7
  %14 = call i32 @nextc0(ptr noundef %13, i32 noundef 1)
  store i32 %14, ptr %5, align 4, !tbaa !34
  br label %15

15:                                               ; preds = %12
  %16 = load ptr, ptr %4, align 8, !tbaa !7
  %17 = call i32 @parser_is_identchar(ptr noundef %16)
  %18 = icmp ne i32 %17, 0
  br i1 %18, label %6, label %19, !llvm.loop !731

19:                                               ; preds = %15
  %20 = load ptr, ptr %4, align 8, !tbaa !7
  %21 = load i32, ptr %5, align 4, !tbaa !34
  call void @pushback(ptr noundef %20, i32 noundef %21)
  store i32 0, ptr %3, align 4
  br label %22

22:                                               ; preds = %19, %11
  %23 = load i32, ptr %3, align 4
  ret i32 %23
}