; Function Attrs: nounwind sspstrong uwtable
define internal fastcc range(i32 -1, 1) i32 @tokadd_ident(ptr noundef %0, i32 noundef range(i32 -1, 256) %1) unnamed_addr #0 {
  %3 = tail call fastcc i32 @tokadd_mbchar(ptr noundef %0, i32 noundef %1)
  %4 = icmp eq i32 %3, -1
  br i1 %4, label %pushback.exit, label %.lr.ph

.lr.ph:                                           ; preds = %2
  %5 = getelementptr inbounds nuw i8, ptr %0, i64 80
  %6 = getelementptr inbounds nuw i8, ptr %0, i64 88
  %7 = getelementptr inbounds nuw i8, ptr %0, i64 360
  %8 = getelementptr inbounds nuw i8, ptr %0, i64 64
  %9 = getelementptr inbounds nuw i8, ptr %0, i64 216
  br label %10

10:                                               ; preds = %.lr.ph, %.critedge.backedge
  %11 = load ptr, ptr %5, align 8, !tbaa !184
  %12 = load ptr, ptr %6, align 8, !tbaa !420
  %.not.i = icmp ult ptr %11, %12
  br i1 %.not.i, label %13, label %.critedge.i, !prof !533

13:                                               ; preds = %10
  %14 = load i32, ptr %7, align 8
  %15 = and i32 %14, 8
  %.not13.i = icmp eq i32 %15, 0
  br i1 %.not13.i, label %16, label %.critedge.i, !prof !533

16:                                               ; preds = %13
  %17 = load ptr, ptr %8, align 8, !tbaa !534
  %18 = icmp ugt ptr %17, inttoptr (i64 1 to ptr)
  br i1 %18, label %.critedge.i, label %20, !prof !204

.critedge.i:                                      ; preds = %16, %13, %10
  %19 = tail call fastcc i32 @nextline(ptr noundef nonnull %0, i32 noundef 1)
  %.not14.i = icmp eq i32 %19, 0
  br i1 %.not14.i, label %.critedge._crit_edge.i, label %nextc0.exit

.critedge._crit_edge.i:                           ; preds = %.critedge.i
  %.pre.i = load ptr, ptr %5, align 8, !tbaa !184
  br label %20

20:                                               ; preds = %.critedge._crit_edge.i, %16
  %21 = phi ptr [ %.pre.i, %.critedge._crit_edge.i ], [ %11, %16 ]
  %22 = getelementptr i8, ptr %21, i64 1
  store ptr %22, ptr %5, align 8, !tbaa !184
  %23 = load i8, ptr %21, align 1, !tbaa !25
  %24 = zext i8 %23 to i32
  %25 = icmp eq i8 %23, 13
  br i1 %25, label %26, label %nextc0.exit, !prof !204

26:                                               ; preds = %20
  %27 = load ptr, ptr %6, align 8, !tbaa !420
  %.not.i.i = icmp ult ptr %22, %27
  br i1 %.not.i.i, label %28, label %nextc0.exit

28:                                               ; preds = %26
  %29 = load i8, ptr %22, align 1, !tbaa !25
  %30 = icmp eq i8 %29, 10
  br i1 %30, label %31, label %nextc0.exit

31:                                               ; preds = %28
  %32 = getelementptr i8, ptr %21, i64 2
  store ptr %32, ptr %5, align 8, !tbaa !184
  br label %nextc0.exit

nextc0.exit:                                      ; preds = %.critedge.i, %20, %26, %28, %31
  %.011.i = phi i32 [ -1, %.critedge.i ], [ %24, %20 ], [ 13, %26 ], [ 10, %31 ], [ 13, %28 ]
  %33 = load i32, ptr %7, align 8
  %34 = and i32 %33, 8
  %.not.i7 = icmp eq i32 %34, 0
  br i1 %.not.i7, label %35, label %parser_is_identchar.exit.thread

35:                                               ; preds = %nextc0.exit
  %36 = load ptr, ptr %5, align 8, !tbaa !184
  %37 = getelementptr i8, ptr %36, i64 -1
  %38 = load ptr, ptr %9, align 8, !tbaa !172
  %39 = load i8, ptr %37, align 1, !tbaa !25
  %40 = zext i8 %39 to i32
  %41 = getelementptr inbounds nuw i8, ptr %38, i64 88
  %42 = load ptr, ptr %41, align 8, !tbaa !620
  %43 = tail call i32 %42(i32 noundef range(i32 -1, 256) %40, i32 noundef 13, ptr noundef %38) #35
  %.not.i.i8 = icmp eq i32 %43, 0
  br i1 %.not.i.i8, label %parser_is_identchar.exit, label %.critedge.backedge

parser_is_identchar.exit:                         ; preds = %35
  %44 = load i8, ptr %37, align 1, !tbaa !25
  %45 = icmp ne i8 %44, 95
  %46 = icmp sgt i8 %44, -1
  %spec.select = and i1 %45, %46
  br i1 %spec.select, label %parser_is_identchar.exit.thread, label %.critedge.backedge

.critedge.backedge:                               ; preds = %parser_is_identchar.exit, %35
  %47 = tail call fastcc i32 @tokadd_mbchar(ptr noundef nonnull %0, i32 noundef %.011.i)
  %48 = icmp eq i32 %47, -1
  br i1 %48, label %pushback.exit, label %10, !llvm.loop !661

parser_is_identchar.exit.thread:                  ; preds = %nextc0.exit, %parser_is_identchar.exit
  %49 = icmp eq i32 %.011.i, -1
  br i1 %49, label %pushback.exit, label %50

50:                                               ; preds = %parser_is_identchar.exit.thread
  %51 = load i32, ptr %7, align 8
  %52 = and i32 %51, -9
  store i32 %52, ptr %7, align 8
  %53 = load ptr, ptr %5, align 8, !tbaa !184
  %54 = getelementptr i8, ptr %53, i64 -1
  store ptr %54, ptr %5, align 8, !tbaa !184
  %55 = getelementptr inbounds nuw i8, ptr %0, i64 72
  %56 = load ptr, ptr %55, align 8, !tbaa !52
  %57 = icmp ugt ptr %54, %56
  br i1 %57, label %58, label %pushback.exit

58:                                               ; preds = %50
  %59 = load i8, ptr %54, align 1, !tbaa !25
  %60 = icmp eq i8 %59, 10
  br i1 %60, label %61, label %pushback.exit

61:                                               ; preds = %58
  %62 = getelementptr i8, ptr %53, i64 -2
  %63 = load i8, ptr %62, align 1, !tbaa !25
  %64 = icmp eq i8 %63, 13
  br i1 %64, label %65, label %pushback.exit

65:                                               ; preds = %61
  store ptr %62, ptr %5, align 8, !tbaa !184
  br label %pushback.exit

pushback.exit:                                    ; preds = %.critedge.backedge, %2, %65, %61, %58, %50, %parser_is_identchar.exit.thread
  %.06 = phi i32 [ 0, %parser_is_identchar.exit.thread ], [ 0, %50 ], [ 0, %58 ], [ 0, %61 ], [ 0, %65 ], [ -1, %2 ], [ -1, %.critedge.backedge ]
  ret i32 %.06
}